target datalayout = "e-m:e-p270:32:32-p271:32:32-p272:64:64-i64:64-i128:128-f80:128-n8:16:32:64-S128"
target triple = "x86_64-pc-linux-gnu"

%struct.HuffmanTables = type { %struct.HuffmanTablesSegment, ptr }
%struct.HuffmanTablesSegment = type { ptr, ptr, ptr, i32 }

; Function Attrs: nounwind uwtable
define hidden void @VP8LHuffmanTablesDeallocate(ptr noundef %0) #0 {
  %2 = alloca ptr, align 8
  %3 = alloca ptr, align 8
  %4 = alloca ptr, align 8
  store ptr %0, ptr %2, align 8
  %5 = load ptr, ptr %2, align 8
  %6 = icmp eq ptr %5, null
  br i1 %6, label %7, label %8

7:                                                ; preds = %1
  br label %34

8:                                                ; preds = %1
  %9 = load ptr, ptr %2, align 8
  %10 = getelementptr inbounds %struct.HuffmanTables, ptr %9, i32 0, i32 0
  store ptr %10, ptr %3, align 8
  %11 = load ptr, ptr %3, align 8
  %12 = getelementptr inbounds %struct.HuffmanTablesSegment, ptr %11, i32 0, i32 2
  %13 = load ptr, ptr %12, align 8
  store ptr %13, ptr %4, align 8
  %14 = load ptr, ptr %3, align 8
  %15 = getelementptr inbounds %struct.HuffmanTablesSegment, ptr %14, i32 0, i32 0
  %16 = load ptr, ptr %15, align 8
  call void @WebPSafeFree(ptr noundef %16)
  %17 = load ptr, ptr %3, align 8
  %18 = getelementptr inbounds %struct.HuffmanTablesSegment, ptr %17, i32 0, i32 0
  store ptr null, ptr %18, align 8
  %19 = load ptr, ptr %3, align 8
  %20 = getelementptr inbounds %struct.HuffmanTablesSegment, ptr %19, i32 0, i32 2
  store ptr null, ptr %20, align 8
  %21 = load ptr, ptr %4, align 8
  store ptr %21, ptr %3, align 8
  br label %22

22:                                               ; preds = %25, %8
  %23 = load ptr, ptr %3, align 8
  %24 = icmp ne ptr %23, null
  br i1 %24, label %25, label %34

25:                                               ; preds = %22
  %26 = load ptr, ptr %3, align 8
  %27 = getelementptr inbounds %struct.HuffmanTablesSegment, ptr %26, i32 0, i32 2
  %28 = load ptr, ptr %27, align 8
  store ptr %28, ptr %4, align 8
  %29 = load ptr, ptr %3, align 8
  %30 = getelementptr inbounds %struct.HuffmanTablesSegment, ptr %29, i32 0, i32 0
  %31 = load ptr, ptr %30, align 8
  call void @WebPSafeFree(ptr noundef %31)
  %32 = load ptr, ptr %3, align 8
  call void @WebPSafeFree(ptr noundef %32)
  %33 = load ptr, ptr %4, align 8
  store ptr %33, ptr %3, align 8
  br label %22, !llvm.loop !12

34:                                               ; preds = %22, %7
  ret void
}