; Function Attrs: nounwind uwtable
define hidden void @VP8LHuffmanTablesDeallocate(ptr noundef %0) local_unnamed_addr #0 {
  %2 = icmp eq ptr %0, null
  br i1 %2, label %.loopexit, label %3

3:                                                ; preds = %1
  %4 = getelementptr inbounds i8, ptr %0, i64 16
  %5 = load ptr, ptr %4, align 8
  %6 = load ptr, ptr %0, align 8
  tail call void @WebPSafeFree(ptr noundef %6) #5
  store ptr null, ptr %0, align 8
  store ptr null, ptr %4, align 8
  %.not13 = icmp eq ptr %5, null
  br i1 %.not13, label %.loopexit, label %.lr.ph

.lr.ph:                                           ; preds = %3, %.lr.ph
  %.014 = phi ptr [ %8, %.lr.ph ], [ %5, %3 ]
  %7 = getelementptr inbounds i8, ptr %.014, i64 16
  %8 = load ptr, ptr %7, align 8
  %9 = load ptr, ptr %.014, align 8
  tail call void @WebPSafeFree(ptr noundef %9) #5
  tail call void @WebPSafeFree(ptr noundef nonnull %.014) #5
  %.not = icmp eq ptr %8, null
  br i1 %.not, label %.loopexit, label %.lr.ph, !llvm.loop !15

.loopexit:                                        ; preds = %.lr.ph, %3, %1
  ret void
}